target datalayout = "e-m:e-p270:32:32-p271:32:32-p272:64:64-i64:64-i128:128-f80:128-n8:16:32:64-S128"
target triple = "x86_64-pc-linux-gnu"

%struct._object = type { i64, ptr }
%"class.nanobind::handle" = type { ptr }
%struct.Movable = type { i32 }
%"class.std::vector" = type { %"struct.std::_Vector_base" }
%"struct.std::_Vector_base" = type { %"struct.std::_Vector_base<Movable, std::allocator<Movable>>::_Vector_impl" }
%"struct.std::_Vector_base<Movable, std::allocator<Movable>>::_Vector_impl" = type { %"struct.std::_Vector_base<Movable, std::allocator<Movable>>::_Vector_impl_data" }
%"struct.std::_Vector_base<Movable, std::allocator<Movable>>::_Vector_impl_data" = type { ptr, ptr, ptr }
%"struct.nanobind::detail::tuple.443" = type { %"struct.nanobind::detail::type_caster.444" }
%"struct.nanobind::detail::type_caster.444" = type { %"struct.nanobind::detail::list_caster" }
%"struct.nanobind::detail::list_caster" = type { %"class.std::vector" }
%class.anon.453 = type { i8 }

@_Py_NoneStruct = external global %struct._object, align 8

; Function Attrs: mustprogress nounwind optsize uwtable
define linkonce_odr hidden void @_ZNSt15__new_allocatorI7MovableEC2Ev(ptr noundef nonnull align 1 dereferenceable(1) %0) unnamed_addr #2 comdat align 2 {
  %2 = alloca ptr, align 8
  store ptr %0, ptr %2, align 8, !tbaa !604
  ret void
}

; Function Attrs: mustprogress nounwind optsize uwtable
define linkonce_odr hidden void @_ZNSt12_Vector_baseI7MovableSaIS0_EE17_Vector_impl_dataC2Ev(ptr noundef nonnull align 8 dereferenceable(24) %0) unnamed_addr #2 comdat align 2 {
  %2 = alloca ptr, align 8
  store ptr %0, ptr %2, align 8, !tbaa !647
  %3 = load ptr, ptr %2, align 8
  %4 = getelementptr inbounds nuw %"struct.std::_Vector_base<Movable, std::allocator<Movable>>::_Vector_impl_data", ptr %3, i32 0, i32 0
  store ptr null, ptr %4, align 8, !tbaa !590
  %5 = getelementptr inbounds nuw %"struct.std::_Vector_base<Movable, std::allocator<Movable>>::_Vector_impl_data", ptr %3, i32 0, i32 1
  store ptr null, ptr %5, align 8, !tbaa !592
  %6 = getelementptr inbounds nuw %"struct.std::_Vector_base<Movable, std::allocator<Movable>>::_Vector_impl_data", ptr %3, i32 0, i32 2
  store ptr null, ptr %6, align 8, !tbaa !597
  ret void
}

; Function Attrs: mustprogress nounwind optsize uwtable
define linkonce_odr hidden void @_ZNSaI7MovableEC2Ev(ptr noundef nonnull align 1 dereferenceable(1) %0) unnamed_addr #2 comdat align 2 {
  %2 = alloca ptr, align 8
  store ptr %0, ptr %2, align 8, !tbaa !602
  %3 = load ptr, ptr %2, align 8
  call void @_ZNSt15__new_allocatorI7MovableEC2Ev(ptr noundef nonnull align 1 dereferenceable(1) %3) #23
  ret void
}

; Function Attrs: mustprogress nounwind optsize uwtable
define linkonce_odr hidden void @_ZNSt12_Vector_baseI7MovableSaIS0_EE12_Vector_implC2Ev(ptr noundef nonnull align 8 dereferenceable(24) %0) unnamed_addr #2 comdat align 2 {
  %2 = alloca ptr, align 8
  store ptr %0, ptr %2, align 8, !tbaa !600
  %3 = load ptr, ptr %2, align 8
  call void @_ZNSaI7MovableEC2Ev(ptr noundef nonnull align 1 dereferenceable(1) %3) #23
  call void @_ZNSt12_Vector_baseI7MovableSaIS0_EE17_Vector_impl_dataC2Ev(ptr noundef nonnull align 8 dereferenceable(24) %3) #23
  ret void
}

; Function Attrs: mustprogress nounwind optsize uwtable
define linkonce_odr hidden void @_ZNSt12_Vector_baseI7MovableSaIS0_EEC2Ev(ptr noundef nonnull align 8 dereferenceable(24) %0) unnamed_addr #2 comdat align 2 {
  %2 = alloca ptr, align 8
  store ptr %0, ptr %2, align 8, !tbaa !598
  %3 = load ptr, ptr %2, align 8
  %4 = getelementptr inbounds nuw %"struct.std::_Vector_base", ptr %3, i32 0, i32 0
  call void @_ZNSt12_Vector_baseI7MovableSaIS0_EE12_Vector_implC2Ev(ptr noundef nonnull align 8 dereferenceable(24) %4) #23
  ret void
}

; Function Attrs: mustprogress nounwind optsize uwtable
define linkonce_odr hidden void @_ZNSt6vectorI7MovableSaIS0_EEC2Ev(ptr noundef nonnull align 8 dereferenceable(24) %0) unnamed_addr #2 comdat align 2 {
  %2 = alloca ptr, align 8
  store ptr %0, ptr %2, align 8, !tbaa !584
  %3 = load ptr, ptr %2, align 8
  call void @_ZNSt12_Vector_baseI7MovableSaIS0_EEC2Ev(ptr noundef nonnull align 8 dereferenceable(24) %3) #23
  ret void
}

; Function Attrs: inlinehint mustprogress nounwind optsize uwtable
define linkonce_odr hidden void @_ZN8nanobind6detail11list_casterISt6vectorI7MovableSaIS3_EES3_EC2Ev(ptr noundef nonnull align 8 dereferenceable(24) %0) unnamed_addr #11 comdat align 2 {
  %2 = alloca ptr, align 8
  store ptr %0, ptr %2, align 8, !tbaa !641
  %3 = load ptr, ptr %2, align 8
  %4 = getelementptr inbounds nuw %"struct.nanobind::detail::list_caster", ptr %3, i32 0, i32 0
  call void @_ZNSt6vectorI7MovableSaIS0_EEC2Ev(ptr noundef nonnull align 8 dereferenceable(24) %4) #23
  ret void
}

; Function Attrs: inlinehint mustprogress nounwind optsize uwtable
define linkonce_odr hidden void @_ZN8nanobind6detail11list_casterISt6vectorI7MovableSaIS3_EES3_ED2Ev(ptr noundef nonnull align 8 dereferenceable(24) %0) unnamed_addr #11 comdat align 2 {
  %2 = alloca ptr, align 8
  store ptr %0, ptr %2, align 8, !tbaa !641
  %3 = load ptr, ptr %2, align 8
  %4 = getelementptr inbounds nuw %"struct.nanobind::detail::list_caster", ptr %3, i32 0, i32 0
  call void @_ZNSt6vectorI7MovableSaIS0_EED2Ev(ptr noundef nonnull align 8 dereferenceable(24) %4) #23
  ret void
}

; Function Attrs: mustprogress nounwind optsize uwtable
define linkonce_odr hidden noundef nonnull align 4 dereferenceable(4) ptr @_ZNSt6vectorI7MovableSaIS0_EEixEm(ptr noundef nonnull align 8 dereferenceable(24) %0, i64 noundef %1) #2 comdat align 2 {
  %3 = alloca ptr, align 8
  %4 = alloca i64, align 8
  store ptr %0, ptr %3, align 8, !tbaa !584
  store i64 %1, ptr %4, align 8, !tbaa !142
  %5 = load ptr, ptr %3, align 8
  %6 = getelementptr inbounds nuw %"struct.std::_Vector_base", ptr %5, i32 0, i32 0
  %7 = getelementptr inbounds nuw %"struct.std::_Vector_base<Movable, std::allocator<Movable>>::_Vector_impl_data", ptr %6, i32 0, i32 0
  %8 = load ptr, ptr %7, align 8, !tbaa !590
  %9 = load i64, ptr %4, align 8, !tbaa !142
  %10 = getelementptr inbounds nuw %struct.Movable, ptr %8, i64 %9
  ret ptr %10
}

; Function Attrs: mustprogress nounwind optsize uwtable
define linkonce_odr hidden noundef i64 @_ZNKSt6vectorI7MovableSaIS0_EE4sizeEv(ptr noundef nonnull align 8 dereferenceable(24) %0) #2 comdat align 2 {
  %2 = alloca ptr, align 8
  store ptr %0, ptr %2, align 8, !tbaa !584
  %3 = load ptr, ptr %2, align 8
  %4 = getelementptr inbounds nuw %"struct.std::_Vector_base", ptr %3, i32 0, i32 0
  %5 = getelementptr inbounds nuw %"struct.std::_Vector_base<Movable, std::allocator<Movable>>::_Vector_impl_data", ptr %4, i32 0, i32 1
  %6 = load ptr, ptr %5, align 8, !tbaa !592
  %7 = getelementptr inbounds nuw %"struct.std::_Vector_base", ptr %3, i32 0, i32 0
  %8 = getelementptr inbounds nuw %"struct.std::_Vector_base<Movable, std::allocator<Movable>>::_Vector_impl_data", ptr %7, i32 0, i32 0
  %9 = load ptr, ptr %8, align 8, !tbaa !590
  %10 = ptrtoint ptr %6 to i64
  %11 = ptrtoint ptr %9 to i64
  %12 = sub i64 %10, %11
  %13 = sdiv exact i64 %12, 4
  ret i64 %13
}

; Function Attrs: inlinehint mustprogress nounwind optsize uwtable
define linkonce_odr hidden void @_ZN8nanobind6detail11type_casterISt6vectorI7MovableSaIS3_EEiEC2Ev(ptr noundef nonnull align 8 dereferenceable(24) %0) unnamed_addr #11 comdat align 2 {
  %2 = alloca ptr, align 8
  store ptr %0, ptr %2, align 8, !tbaa !645
  %3 = load ptr, ptr %2, align 8
  call void @_ZN8nanobind6detail11list_casterISt6vectorI7MovableSaIS3_EES3_EC2Ev(ptr noundef nonnull align 8 dereferenceable(24) %3) #23
  ret void
}

; Function Attrs: inlinehint mustprogress nounwind optsize uwtable
define linkonce_odr hidden void @_ZN8nanobind6detail5tupleIJNS0_11type_casterISt6vectorI7MovableSaIS4_EEiEEEED2Ev(ptr noundef nonnull align 8 dereferenceable(24) %0) unnamed_addr #11 comdat align 2 {
  %2 = alloca ptr, align 8
  store ptr %0, ptr %2, align 8, !tbaa !639
  %3 = load ptr, ptr %2, align 8
  %4 = getelementptr inbounds nuw %"struct.nanobind::detail::tuple.443", ptr %3, i32 0, i32 0
  call void @_ZN8nanobind6detail11list_casterISt6vectorI7MovableSaIS3_EES3_ED2Ev(ptr noundef nonnull align 8 dereferenceable(24) %4) #23
  ret void
}

; Function Attrs: inlinehint mustprogress nounwind optsize uwtable
define internal void @_ZL10_Py_INCREFP7_object(ptr noundef %0) #11 {
  %2 = alloca ptr, align 8
  store ptr %0, ptr %2, align 8, !tbaa !3
  %3 = load ptr, ptr %2, align 8, !tbaa !3
  %4 = getelementptr inbounds nuw %struct._object, ptr %3, i32 0, i32 0
  %5 = load i64, ptr %4, align 8, !tbaa !33
  %6 = add nsw i64 %5, 1
  store i64 %6, ptr %4, align 8, !tbaa !33
  ret void
}

; Function Attrs: inlinehint mustprogress optsize uwtable
define internal void @"_ZZL26nanobind_init_test_stl_extRN8nanobind7module_EENK4$_30clERSt6vectorI7MovableSaIS4_EE"(ptr noundef nonnull align 1 dereferenceable(1) %0, ptr noundef nonnull align 8 dereferenceable(24) %1) #10 align 2 {
  %3 = alloca ptr, align 8
  %4 = alloca ptr, align 8
  %5 = alloca i32, align 4
  store ptr %0, ptr %3, align 8, !tbaa !8
  store ptr %1, ptr %4, align 8, !tbaa !584
  %6 = load ptr, ptr %4, align 8, !tbaa !584
  %7 = call noundef i64 @_ZNKSt6vectorI7MovableSaIS0_EE4sizeEv(ptr noundef nonnull align 8 dereferenceable(24) %6) #23
  %8 = icmp ne i64 %7, 10
  br i1 %8, label %9, label %10

9:                                                ; preds = %2
  call void @_Z4failv() #22
  br label %10

10:                                               ; preds = %9, %2
  call void @llvm.lifetime.start.p0(i64 4, ptr %5) #21
  store i32 0, ptr %5, align 4, !tbaa !11
  br label %11

11:                                               ; preds = %26, %10
  %12 = load i32, ptr %5, align 4, !tbaa !11
  %13 = icmp slt i32 %12, 10
  br i1 %13, label %15, label %14

14:                                               ; preds = %11
  call void @llvm.lifetime.end.p0(i64 4, ptr %5) #21
  br label %29

15:                                               ; preds = %11
  %16 = load ptr, ptr %4, align 8, !tbaa !584
  %17 = load i32, ptr %5, align 4, !tbaa !11
  %18 = sext i32 %17 to i64
  %19 = call noundef nonnull align 4 dereferenceable(4) ptr @_ZNSt6vectorI7MovableSaIS0_EEixEm(ptr noundef nonnull align 8 dereferenceable(24) %16, i64 noundef %18) #23
  %20 = getelementptr inbounds nuw %struct.Movable, ptr %19, i32 0, i32 0
  %21 = load i32, ptr %20, align 4, !tbaa !185
  %22 = load i32, ptr %5, align 4, !tbaa !11
  %23 = icmp ne i32 %21, %22
  br i1 %23, label %24, label %25

24:                                               ; preds = %15
  call void @_Z4failv() #22
  br label %25

25:                                               ; preds = %24, %15
  br label %26

26:                                               ; preds = %25
  %27 = load i32, ptr %5, align 4, !tbaa !11
  %28 = add nsw i32 %27, 1
  store i32 %28, ptr %5, align 4, !tbaa !11
  br label %11, !llvm.loop !663

29:                                               ; preds = %14
  ret void
}

; Function Attrs: mustprogress nounwind optsize uwtable
define linkonce_odr hidden noundef nonnull align 8 dereferenceable(24) ptr @_ZN8nanobind6detail11list_casterISt6vectorI7MovableSaIS3_EES3_EcvRS5_Ev(ptr noundef nonnull align 8 dereferenceable(24) %0) #2 comdat align 2 {
  %2 = alloca ptr, align 8
  store ptr %0, ptr %2, align 8, !tbaa !641
  %3 = load ptr, ptr %2, align 8
  %4 = getelementptr inbounds nuw %"struct.nanobind::detail::list_caster", ptr %3, i32 0, i32 0
  ret ptr %4
}

; Function Attrs: alwaysinline mustprogress nounwind optsize uwtable
define linkonce_odr hidden void @_ZN8nanobind6handleC2EPK7_object(ptr noundef nonnull align 8 dereferenceable(8) %0, ptr noundef %1) unnamed_addr #3 comdat align 2 {
  %3 = alloca ptr, align 8
  %4 = alloca ptr, align 8
  store ptr %0, ptr %3, align 8, !tbaa !17
  store ptr %1, ptr %4, align 8, !tbaa !3
  %5 = load ptr, ptr %3, align 8
  %6 = getelementptr inbounds nuw %"class.nanobind::handle", ptr %5, i32 0, i32 0
  %7 = load ptr, ptr %4, align 8, !tbaa !3
  store ptr %7, ptr %6, align 8, !tbaa !19
  ret void
}

; Function Attrs: alwaysinline mustprogress nounwind optsize uwtable
define linkonce_odr hidden noundef nonnull align 8 dereferenceable(24) ptr @_ZN8nanobind6detail5tupleIJNS0_11type_casterISt6vectorI7MovableSaIS4_EEiEEEE3getILm0EEERDav(ptr noundef nonnull align 8 dereferenceable(24) %0) #3 comdat align 2 {
  %2 = alloca ptr, align 8
  store ptr %0, ptr %2, align 8, !tbaa !639
  %3 = load ptr, ptr %2, align 8
  %4 = getelementptr inbounds nuw %"struct.nanobind::detail::tuple.443", ptr %3, i32 0, i32 0
  ret ptr %4
}

; Function Attrs: mustprogress nounwind optsize uwtable
define linkonce_odr hidden void @_ZN8nanobind6detail5tupleIJNS0_11type_casterISt6vectorI7MovableSaIS4_EEiEEEEC2Ev(ptr noundef nonnull align 8 dereferenceable(24) %0) unnamed_addr #2 comdat align 2 {
  %2 = alloca ptr, align 8
  store ptr %0, ptr %2, align 8, !tbaa !639
  %3 = load ptr, ptr %2, align 8
  %4 = getelementptr inbounds nuw %"struct.nanobind::detail::tuple.443", ptr %3, i32 0, i32 0
  call void @_ZN8nanobind6detail11type_casterISt6vectorI7MovableSaIS3_EEiEC2Ev(ptr noundef nonnull align 8 dereferenceable(24) %4) #23
  ret void
}

; Function Attrs: alwaysinline mustprogress optsize uwtable
define internal noundef ptr @"_ZZN8nanobind6detail11func_createILb0ELb1EZL26nanobind_init_test_stl_extRNS_7module_EE4$_30vJRSt6vectorI7MovableSaIS6_EEEJLm0EEJNS_5scopeENS_4nameEEEEP7_objectOT1_PFT2_DpT3_ESt16integer_sequenceImJXspT4_EEEDpRKT5_ENKUlPvPSD_PhNS_9rv_policyEPNS0_12cleanup_listEE_clESR_SS_ST_SU_SW_"(ptr noundef nonnull align 1 dereferenceable(1) %0, ptr noundef %1, ptr noundef %2, ptr noundef %3, i32 noundef %4, ptr noundef %5) #7 align 2 personality ptr @__gxx_personality_v0 {
  %7 = alloca ptr, align 8
  %8 = alloca ptr, align 8
  %9 = alloca ptr, align 8
  %10 = alloca ptr, align 8
  %11 = alloca ptr, align 8
  %12 = alloca i32, align 4
  %13 = alloca ptr, align 8
  %14 = alloca ptr, align 8
  %15 = alloca %"struct.nanobind::detail::tuple.443", align 8
  %16 = alloca %"class.nanobind::handle", align 8
  %17 = alloca ptr, align 8
  %18 = alloca i32, align 4
  %19 = alloca i32, align 4
  %20 = alloca ptr, align 8
  store ptr %0, ptr %8, align 8, !tbaa !8
  store ptr %1, ptr %9, align 8, !tbaa !8
  store ptr %2, ptr %10, align 8, !tbaa !165
  store ptr %3, ptr %11, align 8, !tbaa !34
  store i32 %4, ptr %12, align 4, !tbaa !23
  store ptr %5, ptr %13, align 8, !tbaa !167
  call void @llvm.lifetime.start.p0(i64 8, ptr %14) #21
  %21 = load ptr, ptr %9, align 8, !tbaa !8
  store ptr %21, ptr %14, align 8, !tbaa !661
  call void @llvm.lifetime.start.p0(i64 24, ptr %15) #21
  call void @_ZN8nanobind6detail5tupleIJNS0_11type_casterISt6vectorI7MovableSaIS4_EEiEEEEC2Ev(ptr noundef nonnull align 8 dereferenceable(24) %15) #23
  %22 = call noundef nonnull align 8 dereferenceable(24) ptr @_ZN8nanobind6detail5tupleIJNS0_11type_casterISt6vectorI7MovableSaIS4_EEiEEEE3getILm0EEERDav(ptr noundef nonnull align 8 dereferenceable(24) %15) #22
  %23 = load ptr, ptr %10, align 8, !tbaa !165
  %24 = getelementptr inbounds nuw ptr, ptr %23, i64 0
  %25 = load ptr, ptr %24, align 8, !tbaa !3
  invoke void @_ZN8nanobind6handleC2EPK7_object(ptr noundef nonnull align 8 dereferenceable(8) %16, ptr noundef %25) #22
          to label %26 unwind label %35

26:                                               ; preds = %6
  %27 = load ptr, ptr %11, align 8, !tbaa !34
  %28 = getelementptr inbounds nuw i8, ptr %27, i64 0
  %29 = load i8, ptr %28, align 1, !tbaa !57
  %30 = load ptr, ptr %13, align 8, !tbaa !167
  %31 = getelementptr inbounds nuw %"class.nanobind::handle", ptr %16, i32 0, i32 0
  %32 = load ptr, ptr %31, align 8
  %33 = call noundef zeroext i1 @_ZN8nanobind6detail11list_casterISt6vectorI7MovableSaIS3_EES3_E11from_pythonENS_6handleEhPNS0_12cleanup_listE(ptr noundef nonnull align 8 dereferenceable(24) %22, ptr %32, i8 noundef zeroext %29, ptr noundef %30) #23
  br i1 %33, label %39, label %34

34:                                               ; preds = %26
  store ptr inttoptr (i64 1 to ptr), ptr %7, align 8
  store i32 1, ptr %19, align 4
  br label %51

35:                                               ; preds = %6
  %36 = landingpad { ptr, i32 }
          cleanup
  %37 = extractvalue { ptr, i32 } %36, 0
  store ptr %37, ptr %17, align 8
  %38 = extractvalue { ptr, i32 } %36, 1
  store i32 %38, ptr %18, align 4
  br label %53

39:                                               ; preds = %26
  call void @llvm.lifetime.start.p0(i64 8, ptr %20) #21
  %40 = load ptr, ptr %14, align 8, !tbaa !661
  %41 = call noundef nonnull align 8 dereferenceable(24) ptr @_ZN8nanobind6detail5tupleIJNS0_11type_casterISt6vectorI7MovableSaIS4_EEiEEEE3getILm0EEERDav(ptr noundef nonnull align 8 dereferenceable(24) %15) #22
  %42 = invoke noundef nonnull align 8 dereferenceable(24) ptr @_ZN8nanobind6detail11list_casterISt6vectorI7MovableSaIS3_EES3_EcvRS5_Ev(ptr noundef nonnull align 8 dereferenceable(24) %41) #22
          to label %43 unwind label %47

43:                                               ; preds = %39
  invoke void @"_ZZL26nanobind_init_test_stl_extRN8nanobind7module_EENK4$_30clERSt6vectorI7MovableSaIS4_EE"(ptr noundef nonnull align 1 dereferenceable(1) %40, ptr noundef nonnull align 8 dereferenceable(24) %42) #22
          to label %44 unwind label %47

44:                                               ; preds = %43
  store ptr @_Py_NoneStruct, ptr %20, align 8, !tbaa !3
  %45 = load ptr, ptr %20, align 8, !tbaa !3
  call void @_ZL10_Py_INCREFP7_object(ptr noundef %45) #22
  %46 = load ptr, ptr %20, align 8, !tbaa !3
  store ptr %46, ptr %7, align 8
  store i32 1, ptr %19, align 4
  call void @llvm.lifetime.end.p0(i64 8, ptr %20) #21
  br label %51

47:                                               ; preds = %43, %39
  %48 = landingpad { ptr, i32 }
          cleanup
  %49 = extractvalue { ptr, i32 } %48, 0
  store ptr %49, ptr %17, align 8
  %50 = extractvalue { ptr, i32 } %48, 1
  store i32 %50, ptr %18, align 4
  call void @llvm.lifetime.end.p0(i64 8, ptr %20) #21
  br label %53

51:                                               ; preds = %44, %34
  call void @_ZN8nanobind6detail5tupleIJNS0_11type_casterISt6vectorI7MovableSaIS4_EEiEEEED2Ev(ptr noundef nonnull align 8 dereferenceable(24) %15) #23
  call void @llvm.lifetime.end.p0(i64 24, ptr %15) #21
  call void @llvm.lifetime.end.p0(i64 8, ptr %14) #21
  %52 = load ptr, ptr %7, align 8
  ret ptr %52

53:                                               ; preds = %47, %35
  call void @_ZN8nanobind6detail5tupleIJNS0_11type_casterISt6vectorI7MovableSaIS4_EEiEEEED2Ev(ptr noundef nonnull align 8 dereferenceable(24) %15) #23
  call void @llvm.lifetime.end.p0(i64 24, ptr %15) #21
  call void @llvm.lifetime.end.p0(i64 8, ptr %14) #21
  br label %54

54:                                               ; preds = %53
  %55 = load ptr, ptr %17, align 8
  %56 = load i32, ptr %18, align 4
  %57 = insertvalue { ptr, i32 } poison, ptr %55, 0
  %58 = insertvalue { ptr, i32 } %57, i32 %56, 1
  resume { ptr, i32 } %58
}

; Function Attrs: inlinehint mustprogress optsize uwtable
define internal noundef ptr @"_ZZN8nanobind6detail11func_createILb0ELb1EZL26nanobind_init_test_stl_extRNS_7module_EE4$_30vJRSt6vectorI7MovableSaIS6_EEEJLm0EEJNS_5scopeENS_4nameEEEEP7_objectOT1_PFT2_DpT3_ESt16integer_sequenceImJXspT4_EEEDpRKT5_ENUlPvPSD_PhNS_9rv_policyEPNS0_12cleanup_listEE_8__invokeESR_SS_ST_SU_SW_"(ptr noundef %0, ptr noundef %1, ptr noundef %2, i32 noundef %3, ptr noundef %4) #10 align 2 {
  %6 = alloca ptr, align 8
  %7 = alloca ptr, align 8
  %8 = alloca ptr, align 8
  %9 = alloca i32, align 4
  %10 = alloca ptr, align 8
  %11 = alloca %class.anon.453, align 1
  store ptr %0, ptr %6, align 8, !tbaa !8
  store ptr %1, ptr %7, align 8, !tbaa !165
  store ptr %2, ptr %8, align 8, !tbaa !34
  store i32 %3, ptr %9, align 4, !tbaa !23
  store ptr %4, ptr %10, align 8, !tbaa !167
  %12 = load ptr, ptr %6, align 8, !tbaa !8
  %13 = load ptr, ptr %7, align 8, !tbaa !165
  %14 = load ptr, ptr %8, align 8, !tbaa !34
  %15 = load i32, ptr %9, align 4, !tbaa !23
  %16 = load ptr, ptr %10, align 8, !tbaa !167
  %17 = call noundef ptr @"_ZZN8nanobind6detail11func_createILb0ELb1EZL26nanobind_init_test_stl_extRNS_7module_EE4$_30vJRSt6vectorI7MovableSaIS6_EEEJLm0EEJNS_5scopeENS_4nameEEEEP7_objectOT1_PFT2_DpT3_ESt16integer_sequenceImJXspT4_EEEDpRKT5_ENKUlPvPSD_PhNS_9rv_policyEPNS0_12cleanup_listEE_clESR_SS_ST_SU_SW_"(ptr noundef nonnull align 1 dereferenceable(1) %11, ptr noundef %12, ptr noundef %13, ptr noundef %14, i32 noundef %15, ptr noundef %16) #22
  ret ptr %17
}