; Function Attrs: inlinehint mustprogress optsize uwtable
define internal noundef nonnull ptr @"_ZZN8nanobind6detail11func_createILb0ELb1EZL26nanobind_init_test_stl_extRNS_7module_EE4$_30vJRSt6vectorI7MovableSaIS6_EEEJLm0EEJNS_5scopeENS_4nameEEEEP7_objectOT1_PFT2_DpT3_ESt16integer_sequenceImJXspT4_EEEDpRKT5_ENUlPvPSD_PhNS_9rv_policyEPNS0_12cleanup_listEE_8__invokeESR_SS_ST_SU_SW_"(ptr readnone captures(none) %0, ptr noundef readonly captures(none) %1, ptr noundef readonly captures(none) %2, i32 %3, ptr noundef %4) #11 align 2 personality ptr @__gxx_personality_v0 {
  %6 = alloca %"struct.nanobind::detail::tuple.443", align 8
  call void @llvm.lifetime.start.p0(i64 24, ptr nonnull %6) #28
  call void @llvm.memset.p0.i64(ptr noundef nonnull align 8 dereferenceable(24) %6, i8 0, i64 24, i1 false)
  %7 = load ptr, ptr %1, align 8, !tbaa !131
  %8 = load i8, ptr %2, align 1, !tbaa !44
  %9 = call noundef zeroext i1 @_ZN8nanobind6detail11list_casterISt6vectorI7MovableSaIS3_EES3_E11from_pythonENS_6handleEhPNS0_12cleanup_listE(ptr noundef nonnull align 8 dereferenceable(24) %6, ptr %7, i8 noundef zeroext %8, ptr noundef %4) #27
  br i1 %9, label %10, label %"_ZZN8nanobind6detail11func_createILb0ELb1EZL26nanobind_init_test_stl_extRNS_7module_EE4$_30vJRSt6vectorI7MovableSaIS6_EEEJLm0EEJNS_5scopeENS_4nameEEEEP7_objectOT1_PFT2_DpT3_ESt16integer_sequenceImJXspT4_EEEDpRKT5_ENKUlPvPSD_PhNS_9rv_policyEPNS0_12cleanup_listEE_clESR_SS_ST_SU_SW_.exit"

10:                                               ; preds = %5
  %11 = getelementptr inbounds nuw i8, ptr %6, i64 8
  %12 = load ptr, ptr %11, align 8, !tbaa !269
  %13 = load ptr, ptr %6, align 8, !tbaa !271
  %14 = ptrtoint ptr %12 to i64
  %15 = ptrtoint ptr %13 to i64
  %16 = sub i64 %14, %15
  %.not.i = icmp eq i64 %16, 40
  br i1 %.not.i, label %.preheader.i, label %.invoke

17:                                               ; preds = %.preheader.i
  %indvars.iv.next.i = add nuw nsw i64 %indvars.iv.i, 1
  %exitcond.not.i = icmp eq i64 %indvars.iv.next.i, 10
  br i1 %exitcond.not.i, label %"_ZZL26nanobind_init_test_stl_extRN8nanobind7module_EENK4$_30clERSt6vectorI7MovableSaIS4_EE.exit", label %.preheader.i, !llvm.loop !323

.preheader.i:                                     ; preds = %10, %17
  %indvars.iv.i = phi i64 [ %indvars.iv.next.i, %17 ], [ 0, %10 ]
  %18 = getelementptr inbounds nuw %struct.Movable, ptr %13, i64 %indvars.iv.i
  %19 = load i32, ptr %18, align 4, !tbaa !129
  %20 = zext i32 %19 to i64
  %.not5.i = icmp eq i64 %indvars.iv.i, %20
  br i1 %.not5.i, label %17, label %.invoke

.invoke:                                          ; preds = %.preheader.i, %10
  invoke void @_Z4failv() #30
          to label %.cont unwind label %23

.cont:                                            ; preds = %.invoke
  unreachable

"_ZZL26nanobind_init_test_stl_extRN8nanobind7module_EENK4$_30clERSt6vectorI7MovableSaIS4_EE.exit": ; preds = %17
  %21 = load i64, ptr @_Py_NoneStruct, align 8, !tbaa !69
  %22 = add nsw i64 %21, 1
  store i64 %22, ptr @_Py_NoneStruct, align 8, !tbaa !69
  br label %"_ZZN8nanobind6detail11func_createILb0ELb1EZL26nanobind_init_test_stl_extRNS_7module_EE4$_30vJRSt6vectorI7MovableSaIS6_EEEJLm0EEJNS_5scopeENS_4nameEEEEP7_objectOT1_PFT2_DpT3_ESt16integer_sequenceImJXspT4_EEEDpRKT5_ENKUlPvPSD_PhNS_9rv_policyEPNS0_12cleanup_listEE_clESR_SS_ST_SU_SW_.exit"

23:                                               ; preds = %.invoke
  %24 = landingpad { ptr, i32 }
          cleanup
  call void @_ZNSt6vectorI7MovableSaIS0_EED2Ev(ptr noundef nonnull align 8 dereferenceable(24) %6) #27
  call void @llvm.lifetime.end.p0(i64 24, ptr nonnull %6) #28
  resume { ptr, i32 } %24

"_ZZN8nanobind6detail11func_createILb0ELb1EZL26nanobind_init_test_stl_extRNS_7module_EE4$_30vJRSt6vectorI7MovableSaIS6_EEEJLm0EEJNS_5scopeENS_4nameEEEEP7_objectOT1_PFT2_DpT3_ESt16integer_sequenceImJXspT4_EEEDpRKT5_ENKUlPvPSD_PhNS_9rv_policyEPNS0_12cleanup_listEE_clESR_SS_ST_SU_SW_.exit": ; preds = %5, %"_ZZL26nanobind_init_test_stl_extRN8nanobind7module_EENK4$_30clERSt6vectorI7MovableSaIS4_EE.exit"
  %.0.i = phi ptr [ @_Py_NoneStruct, %"_ZZL26nanobind_init_test_stl_extRN8nanobind7module_EENK4$_30clERSt6vectorI7MovableSaIS4_EE.exit" ], [ inttoptr (i64 1 to ptr), %5 ]
  call void @_ZNSt6vectorI7MovableSaIS0_EED2Ev(ptr noundef nonnull align 8 dereferenceable(24) %6) #27
  call void @llvm.lifetime.end.p0(i64 24, ptr nonnull %6) #28
  ret ptr %.0.i
}